; Function Attrs: mustprogress nounwind uwtable
define internal fastcc void @_ZN12_GLOBAL__N_110MasmParser18parseDirectiveEchoEN4llvm5SMLocE(ptr noundef nonnull align 8 dereferenceable(1144) %0) unnamed_addr #0 align 2 {
  %2 = alloca %"class.std::__cxx11::basic_string", align 8
  call fastcc void @_ZN12_GLOBAL__N_110MasmParser13parseStringToB5cxx11EN4llvm8AsmToken9TokenKindE(ptr dead_on_unwind noalias writable align 8 %2, ptr noundef nonnull align 8 dereferenceable(1144) %0)
  %3 = call noundef nonnull align 8 dereferenceable(96) ptr @_ZN4llvm4outsEv() #24
  %4 = call noundef ptr @_ZNKSt7__cxx1112basic_stringIcSt11char_traitsIcESaIcEE4dataEv(ptr noundef nonnull align 8 dereferenceable(32) %2) #24
  %5 = call noundef i64 @_ZNKSt7__cxx1112basic_stringIcSt11char_traitsIcESaIcEE6lengthEv(ptr noundef nonnull align 8 dereferenceable(32) %2) #24
  %6 = call noundef nonnull align 8 dereferenceable(48) ptr @_ZN4llvm11raw_ostream5writeEPKcm(ptr noundef nonnull align 8 dereferenceable(48) %3, ptr noundef %4, i64 noundef %5) #24
  %7 = call noundef ptr @_ZNKSt7__cxx1112basic_stringIcSt11char_traitsIcESaIcEE4dataEv(ptr noundef nonnull align 8 dereferenceable(32) %2) #24
  %8 = call noundef i64 @_ZNKSt7__cxx1112basic_stringIcSt11char_traitsIcESaIcEE6lengthEv(ptr noundef nonnull align 8 dereferenceable(32) %2) #24
  %.not.i = icmp eq i64 %8, 0
  br i1 %.not.i, label %_ZNK4llvm9StringRef9ends_withES0_.exit.thread3, label %_ZNK4llvm9StringRef9ends_withES0_.exit

_ZNK4llvm9StringRef9ends_withES0_.exit:           ; preds = %1
  %9 = getelementptr inbounds i8, ptr %7, i64 %8
  %10 = getelementptr inbounds i8, ptr %9, i64 -1
  %lhsc = load i8, ptr %10, align 1
  %11 = icmp eq i8 %lhsc, 10
  br i1 %11, label %_ZN4llvm11raw_ostreamlsEc.exit, label %_ZNK4llvm9StringRef9ends_withES0_.exit.thread3

_ZNK4llvm9StringRef9ends_withES0_.exit.thread3:   ; preds = %1, %_ZNK4llvm9StringRef9ends_withES0_.exit
  %12 = call noundef nonnull align 8 dereferenceable(96) ptr @_ZN4llvm4outsEv() #24
  %13 = getelementptr inbounds nuw i8, ptr %12, i64 32
  %14 = load ptr, ptr %13, align 8
  %15 = getelementptr inbounds nuw i8, ptr %12, i64 24
  %16 = load ptr, ptr %15, align 8
  %.not.i1 = icmp ult ptr %14, %16
  br i1 %.not.i1, label %19, label %17

17:                                               ; preds = %_ZNK4llvm9StringRef9ends_withES0_.exit.thread3
  %18 = call noundef nonnull align 8 dereferenceable(48) ptr @_ZN4llvm11raw_ostream5writeEh(ptr noundef nonnull align 8 dereferenceable(48) %12, i8 noundef zeroext 10) #24
  br label %_ZN4llvm11raw_ostreamlsEc.exit

19:                                               ; preds = %_ZNK4llvm9StringRef9ends_withES0_.exit.thread3
  %20 = getelementptr inbounds nuw i8, ptr %14, i64 1
  store ptr %20, ptr %13, align 8
  store i8 10, ptr %14, align 1
  br label %_ZN4llvm11raw_ostreamlsEc.exit

_ZN4llvm11raw_ostreamlsEc.exit:                   ; preds = %19, %17, %_ZNK4llvm9StringRef9ends_withES0_.exit
  call void @_ZNSt7__cxx1112basic_stringIcSt11char_traitsIcESaIcEED1Ev(ptr noundef nonnull align 8 dereferenceable(32) %2) #24
  ret void
}